target datalayout = "e-m:e-p270:32:32-p271:32:32-p272:64:64-i64:64-i128:128-f80:128-n8:16:32:64-S128"
target triple = "x86_64-pc-linux-gnu"

%struct.StatsData = type { i64, i64, i64, i64, i64, i64, i64, %struct.SimpleStats, %struct.SimpleStats }
%struct.SimpleStats = type { i64, double, double, double, double }

@throttle_delay = internal global double 0.000000e+00, align 8
@.str.371 = private unnamed_addr constant [28 x i8] c"unexpected error status: %d\00", align 1

; Function Attrs: nounwind uwtable
define internal void @addToSimpleStats(ptr noundef %0, double noundef %1) #0 {
  %3 = alloca ptr, align 8
  %4 = alloca double, align 8
  store ptr %0, ptr %3, align 8
  store double %1, ptr %4, align 8
  %5 = load ptr, ptr %3, align 8
  %6 = getelementptr inbounds nuw %struct.SimpleStats, ptr %5, i32 0, i32 0
  %7 = load i64, ptr %6, align 8
  %8 = icmp eq i64 %7, 0
  br i1 %8, label %15, label %9

9:                                                ; preds = %2
  %10 = load double, ptr %4, align 8
  %11 = load ptr, ptr %3, align 8
  %12 = getelementptr inbounds nuw %struct.SimpleStats, ptr %11, i32 0, i32 1
  %13 = load double, ptr %12, align 8
  %14 = fcmp olt double %10, %13
  br i1 %14, label %15, label %19

15:                                               ; preds = %9, %2
  %16 = load double, ptr %4, align 8
  %17 = load ptr, ptr %3, align 8
  %18 = getelementptr inbounds nuw %struct.SimpleStats, ptr %17, i32 0, i32 1
  store double %16, ptr %18, align 8
  br label %19

19:                                               ; preds = %15, %9
  %20 = load ptr, ptr %3, align 8
  %21 = getelementptr inbounds nuw %struct.SimpleStats, ptr %20, i32 0, i32 0
  %22 = load i64, ptr %21, align 8
  %23 = icmp eq i64 %22, 0
  br i1 %23, label %30, label %24

24:                                               ; preds = %19
  %25 = load double, ptr %4, align 8
  %26 = load ptr, ptr %3, align 8
  %27 = getelementptr inbounds nuw %struct.SimpleStats, ptr %26, i32 0, i32 2
  %28 = load double, ptr %27, align 8
  %29 = fcmp ogt double %25, %28
  br i1 %29, label %30, label %34

30:                                               ; preds = %24, %19
  %31 = load double, ptr %4, align 8
  %32 = load ptr, ptr %3, align 8
  %33 = getelementptr inbounds nuw %struct.SimpleStats, ptr %32, i32 0, i32 2
  store double %31, ptr %33, align 8
  br label %34

34:                                               ; preds = %30, %24
  %35 = load ptr, ptr %3, align 8
  %36 = getelementptr inbounds nuw %struct.SimpleStats, ptr %35, i32 0, i32 0
  %37 = load i64, ptr %36, align 8
  %38 = add i64 %37, 1
  store i64 %38, ptr %36, align 8
  %39 = load double, ptr %4, align 8
  %40 = load ptr, ptr %3, align 8
  %41 = getelementptr inbounds nuw %struct.SimpleStats, ptr %40, i32 0, i32 3
  %42 = load double, ptr %41, align 8
  %43 = fadd double %42, %39
  store double %43, ptr %41, align 8
  %44 = load double, ptr %4, align 8
  %45 = load double, ptr %4, align 8
  %46 = load ptr, ptr %3, align 8
  %47 = getelementptr inbounds nuw %struct.SimpleStats, ptr %46, i32 0, i32 4
  %48 = load double, ptr %47, align 8
  %49 = call double @llvm.fmuladd.f64(double %44, double %45, double %48)
  store double %49, ptr %47, align 8
  ret void
}

; Function Attrs: nounwind uwtable
define internal void @accumStats(ptr noundef %0, i1 noundef zeroext %1, double noundef %2, double noundef %3, i32 noundef %4, i64 noundef %5) #0 {
  %7 = alloca ptr, align 8
  %8 = alloca i8, align 1
  %9 = alloca double, align 8
  %10 = alloca double, align 8
  %11 = alloca i32, align 4
  %12 = alloca i64, align 8
  store ptr %0, ptr %7, align 8
  %13 = zext i1 %1 to i8
  store i8 %13, ptr %8, align 1
  store double %2, ptr %9, align 8
  store double %3, ptr %10, align 8
  store i32 %4, ptr %11, align 4
  store i64 %5, ptr %12, align 8
  %14 = load i8, ptr %8, align 1, !range !8, !noundef !9
  %15 = trunc i8 %14 to i1
  br i1 %15, label %16, label %21

16:                                               ; preds = %6
  %17 = load ptr, ptr %7, align 8
  %18 = getelementptr inbounds nuw %struct.StatsData, ptr %17, i32 0, i32 2
  %19 = load i64, ptr %18, align 8
  %20 = add i64 %19, 1
  store i64 %20, ptr %18, align 8
  br label %66

21:                                               ; preds = %6
  %22 = load i64, ptr %12, align 8
  %23 = icmp sgt i64 %22, 1
  br i1 %23, label %24, label %35

24:                                               ; preds = %21
  %25 = load i64, ptr %12, align 8
  %26 = sub i64 %25, 1
  %27 = load ptr, ptr %7, align 8
  %28 = getelementptr inbounds nuw %struct.StatsData, ptr %27, i32 0, i32 3
  %29 = load i64, ptr %28, align 8
  %30 = add i64 %29, %26
  store i64 %30, ptr %28, align 8
  %31 = load ptr, ptr %7, align 8
  %32 = getelementptr inbounds nuw %struct.StatsData, ptr %31, i32 0, i32 4
  %33 = load i64, ptr %32, align 8
  %34 = add i64 %33, 1
  store i64 %34, ptr %32, align 8
  br label %35

35:                                               ; preds = %24, %21
  %36 = load i32, ptr %11, align 4
  switch i32 %36, label %62 [
    i32 0, label %37
    i32 2, label %52
    i32 3, label %57
  ]

37:                                               ; preds = %35
  %38 = load ptr, ptr %7, align 8
  %39 = getelementptr inbounds nuw %struct.StatsData, ptr %38, i32 0, i32 1
  %40 = load i64, ptr %39, align 8
  %41 = add i64 %40, 1
  store i64 %41, ptr %39, align 8
  %42 = load ptr, ptr %7, align 8
  %43 = getelementptr inbounds nuw %struct.StatsData, ptr %42, i32 0, i32 7
  %44 = load double, ptr %9, align 8
  call void @addToSimpleStats(ptr noundef %43, double noundef %44)
  %45 = load double, ptr @throttle_delay, align 8
  %46 = fcmp une double %45, 0.000000e+00
  br i1 %46, label %47, label %51

47:                                               ; preds = %37
  %48 = load ptr, ptr %7, align 8
  %49 = getelementptr inbounds nuw %struct.StatsData, ptr %48, i32 0, i32 8
  %50 = load double, ptr %10, align 8
  call void @addToSimpleStats(ptr noundef %49, double noundef %50)
  br label %51

51:                                               ; preds = %47, %37
  br label %66

52:                                               ; preds = %35
  %53 = load ptr, ptr %7, align 8
  %54 = getelementptr inbounds nuw %struct.StatsData, ptr %53, i32 0, i32 5
  %55 = load i64, ptr %54, align 8
  %56 = add i64 %55, 1
  store i64 %56, ptr %54, align 8
  br label %66

57:                                               ; preds = %35
  %58 = load ptr, ptr %7, align 8
  %59 = getelementptr inbounds nuw %struct.StatsData, ptr %58, i32 0, i32 6
  %60 = load i64, ptr %59, align 8
  %61 = add i64 %60, 1
  store i64 %61, ptr %59, align 8
  br label %66

62:                                               ; preds = %35
  br label %63

63:                                               ; preds = %62
  %64 = load i32, ptr %11, align 4
  call void (i32, i32, ptr, ...) @pg_log_generic(i32 noundef 4, i32 noundef 0, ptr noundef @.str.371, i32 noundef %64)
  call void @exit(i32 noundef 1) #16
  unreachable

65:                                               ; No predecessors!
  br label %66

66:                                               ; preds = %16, %65, %57, %52, %51
  ret void
}