; Function Attrs: nounwind uwtable
define internal fastcc void @accumStats(ptr noundef captures(none) %0, i1 noundef zeroext %1, double noundef %2, double noundef %3, i32 noundef %4, i64 noundef range(i64 0, 4294967296) %5) unnamed_addr #0 {
  br i1 %1, label %7, label %11

7:                                                ; preds = %6
  %8 = getelementptr inbounds nuw i8, ptr %0, i64 16
  %9 = load i64, ptr %8, align 8
  %10 = add i64 %9, 1
  store i64 %10, ptr %8, align 8
  br label %78

11:                                               ; preds = %6
  %12 = icmp samesign ugt i64 %5, 1
  br i1 %12, label %13, label %21

13:                                               ; preds = %11
  %14 = add nsw i64 %5, -1
  %15 = getelementptr inbounds nuw i8, ptr %0, i64 24
  %16 = load i64, ptr %15, align 8
  %17 = add i64 %14, %16
  store i64 %17, ptr %15, align 8
  %18 = getelementptr inbounds nuw i8, ptr %0, i64 32
  %19 = load i64, ptr %18, align 8
  %20 = add i64 %19, 1
  store i64 %20, ptr %18, align 8
  br label %21

21:                                               ; preds = %13, %11
  switch i32 %4, label %77 [
    i32 0, label %22
    i32 2, label %69
    i32 3, label %73
  ]

22:                                               ; preds = %21
  %23 = getelementptr inbounds nuw i8, ptr %0, i64 8
  %24 = load i64, ptr %23, align 8
  %25 = add i64 %24, 1
  store i64 %25, ptr %23, align 8
  %26 = getelementptr inbounds nuw i8, ptr %0, i64 56
  %27 = load i64, ptr %26, align 8
  %28 = icmp eq i64 %27, 0
  %29 = getelementptr inbounds nuw i8, ptr %0, i64 64
  br i1 %28, label %.thread16.i, label %30

.thread16.i:                                      ; preds = %22
  store double %2, ptr %29, align 8
  br label %37

30:                                               ; preds = %22
  %31 = load double, ptr %29, align 8
  %32 = fcmp olt double %2, %31
  br i1 %32, label %33, label %.thread.i

33:                                               ; preds = %30
  store double %2, ptr %29, align 8
  br label %.thread.i

.thread.i:                                        ; preds = %33, %30
  %34 = getelementptr inbounds nuw i8, ptr %0, i64 72
  %35 = load double, ptr %34, align 8
  %36 = fcmp ogt double %2, %35
  br i1 %36, label %37, label %addToSimpleStats.exit

37:                                               ; preds = %.thread.i, %.thread16.i
  %38 = getelementptr inbounds nuw i8, ptr %0, i64 72
  store double %2, ptr %38, align 8
  br label %addToSimpleStats.exit

addToSimpleStats.exit:                            ; preds = %.thread.i, %37
  %39 = add i64 %27, 1
  store i64 %39, ptr %26, align 8
  %40 = getelementptr inbounds nuw i8, ptr %0, i64 80
  %41 = load double, ptr %40, align 8
  %42 = fadd double %2, %41
  store double %42, ptr %40, align 8
  %43 = getelementptr inbounds nuw i8, ptr %0, i64 88
  %44 = load double, ptr %43, align 8
  %45 = tail call double @llvm.fmuladd.f64(double %2, double %2, double %44)
  store double %45, ptr %43, align 8
  %46 = load double, ptr @throttle_delay, align 8
  %47 = fcmp une double %46, 0.000000e+00
  br i1 %47, label %48, label %78

48:                                               ; preds = %addToSimpleStats.exit
  %49 = getelementptr inbounds nuw i8, ptr %0, i64 96
  %50 = load i64, ptr %49, align 8
  %51 = icmp eq i64 %50, 0
  %52 = getelementptr inbounds nuw i8, ptr %0, i64 104
  br i1 %51, label %.thread16.i15, label %53

.thread16.i15:                                    ; preds = %48
  store double %3, ptr %52, align 8
  br label %60

53:                                               ; preds = %48
  %54 = load double, ptr %52, align 8
  %55 = fcmp olt double %3, %54
  br i1 %55, label %56, label %.thread.i14

56:                                               ; preds = %53
  store double %3, ptr %52, align 8
  br label %.thread.i14

.thread.i14:                                      ; preds = %56, %53
  %57 = getelementptr inbounds nuw i8, ptr %0, i64 112
  %58 = load double, ptr %57, align 8
  %59 = fcmp ogt double %3, %58
  br i1 %59, label %60, label %addToSimpleStats.exit16

60:                                               ; preds = %.thread.i14, %.thread16.i15
  %61 = getelementptr inbounds nuw i8, ptr %0, i64 112
  store double %3, ptr %61, align 8
  br label %addToSimpleStats.exit16

addToSimpleStats.exit16:                          ; preds = %.thread.i14, %60
  %62 = add i64 %50, 1
  store i64 %62, ptr %49, align 8
  %63 = getelementptr inbounds nuw i8, ptr %0, i64 120
  %64 = load double, ptr %63, align 8
  %65 = fadd double %3, %64
  store double %65, ptr %63, align 8
  %66 = getelementptr inbounds nuw i8, ptr %0, i64 128
  %67 = load double, ptr %66, align 8
  %68 = tail call double @llvm.fmuladd.f64(double %3, double %3, double %67)
  store double %68, ptr %66, align 8
  br label %78

69:                                               ; preds = %21
  %70 = getelementptr inbounds nuw i8, ptr %0, i64 40
  %71 = load i64, ptr %70, align 8
  %72 = add i64 %71, 1
  store i64 %72, ptr %70, align 8
  br label %78

73:                                               ; preds = %21
  %74 = getelementptr inbounds nuw i8, ptr %0, i64 48
  %75 = load i64, ptr %74, align 8
  %76 = add i64 %75, 1
  store i64 %76, ptr %74, align 8
  br label %78

77:                                               ; preds = %21
  tail call void (i32, i32, ptr, ...) @pg_log_generic(i32 noundef 4, i32 noundef 0, ptr noundef nonnull @.str.371, i32 noundef %4) #25
  tail call void @exit(i32 noundef 1) #26
  unreachable

78:                                               ; preds = %addToSimpleStats.exit, %addToSimpleStats.exit16, %73, %69, %7
  ret void
}